; ModuleID = 'source-C-CXX/59/1581.c'
source_filename = "source-C-CXX/59/1581.c"
target datalayout = "e-m:e-p270:32:32-p271:32:32-p272:64:64-i64:64-f80:128-n8:16:32:64-S128"
target triple = "x86_64-pc-linux-gnu"

@.str = private unnamed_addr constant [3 x i8] c"%d\00", align 1
@.str.1 = private unnamed_addr constant [6 x i8] c"empty\00", align 1
@.str.2 = private unnamed_addr constant [7 x i8] c"%d %d\0A\00", align 1

; Function Attrs: nofree nounwind sspstrong uwtable
define dso_local void @main() local_unnamed_addr #0 {
  %1 = alloca i32, align 4
  %2 = bitcast i32* %1 to i8*
  call void @llvm.lifetime.start.p0i8(i64 4, i8* nonnull %2) #3
  %3 = call i32 (i8*, ...) @__isoc99_scanf(i8* getelementptr inbounds ([3 x i8], [3 x i8]* @.str, i64 0, i64 0), i32* nonnull %1)
  %4 = load i32, i32* %1, align 4, !tbaa !5
  %5 = icmp slt i32 %4, 5
  br i1 %5, label %6, label %8

6:                                                ; preds = %0
  %7 = call i32 (i8*, ...) @printf(i8* nonnull dereferenceable(1) getelementptr inbounds ([6 x i8], [6 x i8]* @.str.1, i64 0, i64 0))
  br label %42

8:                                                ; preds = %0, %37
  %9 = phi i32 [ %38, %37 ], [ %4, %0 ]
  %10 = phi i32 [ %41, %37 ], [ 4, %0 ]
  %11 = phi i32 [ %22, %37 ], [ undef, %0 ]
  %12 = phi i32 [ %23, %37 ], [ 2, %0 ]
  %13 = icmp ugt i32 %12, 2
  br i1 %13, label %16, label %21

14:                                               ; preds = %16
  %15 = icmp eq i32 %20, %12
  br i1 %15, label %21, label %16, !llvm.loop !9

16:                                               ; preds = %8, %14
  %17 = phi i32 [ %20, %14 ], [ 2, %8 ]
  %18 = urem i32 %12, %17
  %19 = icmp eq i32 %18, 0
  %20 = add nuw nsw i32 %17, 1
  br i1 %19, label %21, label %14

21:                                               ; preds = %16, %14, %8
  %22 = phi i32 [ %11, %8 ], [ 0, %16 ], [ 1, %14 ]
  %23 = add nuw nsw i32 %12, 1
  %24 = add nuw nsw i32 %12, 2
  br label %28

25:                                               ; preds = %28
  %26 = add nuw i32 %29, 1
  %27 = icmp eq i32 %26, %10
  br i1 %27, label %32, label %28, !llvm.loop !11

28:                                               ; preds = %21, %25
  %29 = phi i32 [ %26, %25 ], [ 2, %21 ]
  %30 = urem i32 %24, %29
  %31 = icmp eq i32 %30, 0
  br i1 %31, label %37, label %25

32:                                               ; preds = %25
  %33 = icmp eq i32 %22, 1
  br i1 %33, label %34, label %37

34:                                               ; preds = %32
  %35 = call i32 (i8*, ...) @printf(i8* nonnull dereferenceable(1) getelementptr inbounds ([7 x i8], [7 x i8]* @.str.2, i64 0, i64 0), i32 %12, i32 %24)
  %36 = load i32, i32* %1, align 4, !tbaa !5
  br label %37

37:                                               ; preds = %28, %32, %34
  %38 = phi i32 [ %9, %32 ], [ %36, %34 ], [ %9, %28 ]
  %39 = add nsw i32 %38, -2
  %40 = icmp slt i32 %12, %39
  %41 = add nuw i32 %10, 1
  br i1 %40, label %8, label %42, !llvm.loop !12

42:                                               ; preds = %37, %6
  call void @llvm.lifetime.end.p0i8(i64 4, i8* nonnull %2) #3
  ret void
}

; Function Attrs: argmemonly mustprogress nofree nosync nounwind willreturn
declare void @llvm.lifetime.start.p0i8(i64 immarg, i8* nocapture) #1

; Function Attrs: nofree nounwind
declare noundef i32 @__isoc99_scanf(i8* nocapture noundef readonly, ...) local_unnamed_addr #2

; Function Attrs: nofree nounwind
declare noundef i32 @printf(i8* nocapture noundef readonly, ...) local_unnamed_addr #2

; Function Attrs: argmemonly mustprogress nofree nosync nounwind willreturn
declare void @llvm.lifetime.end.p0i8(i64 immarg, i8* nocapture) #1


!llvm.module.flags = !{!0, !1, !2, !3}
!llvm.ident = !{!4}

!0 = !{i32 1, !"wchar_size", i32 4}
!1 = !{i32 7, !"PIC Level", i32 2}
!2 = !{i32 7, !"PIE Level", i32 2}
!3 = !{i32 7, !"uwtable", i32 1}
!4 = !{!"clang version 13.0.0"}
!5 = !{!6, !6, i64 0}
!6 = !{!"int", !7, i64 0}
!7 = !{!"omnipotent char", !8, i64 0}
!8 = !{!"Simple C/C++ TBAA"}
!9 = distinct !{!9, !10}
!10 = !{!"llvm.loop.mustprogress"}
!11 = distinct !{!11, !10}
!12 = distinct !{!12, !10}
